target datalayout = "e-m:e-p270:32:32-p271:32:32-p272:64:64-i64:64-i128:128-f80:128-n8:16:32:64-S128"
target triple = "x86_64-pc-linux-gnu"

%struct.scram_state = type { i32, ptr, ptr, i8, i32, i32, i32, ptr, [32 x i8], [32 x i8], [32 x i8], i8, ptr, ptr, ptr, ptr, ptr, [32 x i8], ptr, ptr, i8, ptr }
%struct.Port = type { i32, i8, i32, %struct.SockAddr, %struct.SockAddr, ptr, ptr, i32, i32, ptr, ptr, ptr, ptr, ptr, ptr, ptr, i32, i32, i32, i32, i32, i32, i32, i32, [32 x i8], [32 x i8], i8, ptr, i8, ptr, ptr, i8, i8, i8, ptr, ptr, ptr, i64, i64 }
%struct.SockAddr = type { %struct.sockaddr_storage, i32 }
%struct.sockaddr_storage = type { i16, [118 x i8], i64 }

@.str.1 = private unnamed_addr constant [13 x i8] c"auth-scram.c\00", align 1
@.str.2 = private unnamed_addr constant [35 x i8] c"invalid SCRAM secret for user \22%s\22\00", align 1
@.str.6 = private unnamed_addr constant [14 x i8] c"SCRAM-SHA-256\00", align 1
@.str.7 = private unnamed_addr constant [57 x i8] c"client selected an invalid SASL authentication mechanism\00", align 1
@__func__.scram_init = private unnamed_addr constant [11 x i8] c"scram_init\00", align 1
@.str.8 = private unnamed_addr constant [46 x i8] c"User \22%s\22 does not have a valid SCRAM secret.\00", align 1
@.str.9 = private unnamed_addr constant [22 x i8] c"could not encode salt\00", align 1
@__func__.mock_scram_secret = private unnamed_addr constant [18 x i8] c"mock_scram_secret\00", align 1
@scram_mock_salt.sha_digest = internal global [32 x i8] zeroinitializer, align 16

; Function Attrs: nounwind uwtable
define internal ptr @scram_mock_salt(ptr noundef %0, i32 noundef %1, i32 noundef %2) #0 {
  %4 = alloca ptr, align 8
  %5 = alloca ptr, align 8
  %6 = alloca i32, align 4
  %7 = alloca i32, align 4
  %8 = alloca ptr, align 8
  %9 = alloca ptr, align 8
  %10 = alloca i32, align 4
  store ptr %0, ptr %5, align 8
  store i32 %1, ptr %6, align 4
  store i32 %2, ptr %7, align 4
  call void @llvm.lifetime.start.p0(i64 8, ptr %8) #9
  call void @llvm.lifetime.start.p0(i64 8, ptr %9) #9
  %11 = call ptr @GetMockAuthenticationNonce()
  store ptr %11, ptr %9, align 8
  %12 = load i32, ptr %6, align 4
  %13 = call ptr @pg_cryptohash_create(i32 noundef %12)
  store ptr %13, ptr %8, align 8
  %14 = load ptr, ptr %8, align 8
  %15 = call i32 @pg_cryptohash_init(ptr noundef %14)
  %16 = icmp slt i32 %15, 0
  br i1 %16, label %35, label %17

17:                                               ; preds = %3
  %18 = load ptr, ptr %8, align 8
  %19 = load ptr, ptr %5, align 8
  %20 = load ptr, ptr %5, align 8
  %21 = call i64 @strlen(ptr noundef %20) #10
  %22 = call i32 @pg_cryptohash_update(ptr noundef %18, ptr noundef %19, i64 noundef %21)
  %23 = icmp slt i32 %22, 0
  br i1 %23, label %35, label %24

24:                                               ; preds = %17
  %25 = load ptr, ptr %8, align 8
  %26 = load ptr, ptr %9, align 8
  %27 = call i32 @pg_cryptohash_update(ptr noundef %25, ptr noundef %26, i64 noundef 32)
  %28 = icmp slt i32 %27, 0
  br i1 %28, label %35, label %29

29:                                               ; preds = %24
  %30 = load ptr, ptr %8, align 8
  %31 = load i32, ptr %7, align 4
  %32 = sext i32 %31 to i64
  %33 = call i32 @pg_cryptohash_final(ptr noundef %30, ptr noundef @scram_mock_salt.sha_digest, i64 noundef %32)
  %34 = icmp slt i32 %33, 0
  br i1 %34, label %35, label %37

35:                                               ; preds = %29, %24, %17, %3
  %36 = load ptr, ptr %8, align 8
  call void @pg_cryptohash_free(ptr noundef %36)
  store ptr null, ptr %4, align 8
  store i32 1, ptr %10, align 4
  br label %39

37:                                               ; preds = %29
  %38 = load ptr, ptr %8, align 8
  call void @pg_cryptohash_free(ptr noundef %38)
  store ptr @scram_mock_salt.sha_digest, ptr %4, align 8
  store i32 1, ptr %10, align 4
  br label %39

39:                                               ; preds = %37, %35
  call void @llvm.lifetime.end.p0(i64 8, ptr %9) #9
  call void @llvm.lifetime.end.p0(i64 8, ptr %8) #9
  %40 = load ptr, ptr %4, align 8
  ret ptr %40
}

; Function Attrs: nounwind uwtable
define internal void @mock_scram_secret(ptr noundef %0, ptr noundef %1, ptr noundef %2, ptr noundef %3, ptr noundef %4, ptr noundef %5, ptr noundef %6) #0 {
  %8 = alloca ptr, align 8
  %9 = alloca ptr, align 8
  %10 = alloca ptr, align 8
  %11 = alloca ptr, align 8
  %12 = alloca ptr, align 8
  %13 = alloca ptr, align 8
  %14 = alloca ptr, align 8
  %15 = alloca ptr, align 8
  %16 = alloca ptr, align 8
  %17 = alloca i32, align 4
  store ptr %0, ptr %8, align 8
  store ptr %1, ptr %9, align 8
  store ptr %2, ptr %10, align 8
  store ptr %3, ptr %11, align 8
  store ptr %4, ptr %12, align 8
  store ptr %5, ptr %13, align 8
  store ptr %6, ptr %14, align 8
  call void @llvm.lifetime.start.p0(i64 8, ptr %15) #9
  call void @llvm.lifetime.start.p0(i64 8, ptr %16) #9
  call void @llvm.lifetime.start.p0(i64 4, ptr %17) #9
  %18 = load ptr, ptr %9, align 8
  store i32 3, ptr %18, align 4
  %19 = load ptr, ptr %11, align 8
  store i32 32, ptr %19, align 4
  %20 = load ptr, ptr %8, align 8
  %21 = load ptr, ptr %9, align 8
  %22 = load i32, ptr %21, align 4
  %23 = load ptr, ptr %11, align 8
  %24 = load i32, ptr %23, align 4
  %25 = call ptr @scram_mock_salt(ptr noundef %20, i32 noundef %22, i32 noundef %24)
  store ptr %25, ptr %15, align 8
  %26 = load ptr, ptr %15, align 8
  %27 = icmp eq ptr %26, null
  br i1 %27, label %28, label %39

28:                                               ; preds = %7
  br label %29

29:                                               ; preds = %28
  br i1 true, label %30, label %32

30:                                               ; preds = %29
  %31 = call zeroext i1 @errstart_cold(i32 noundef 21, ptr noundef null) #11
  br i1 %31, label %34, label %36

32:                                               ; preds = %29
  %33 = call zeroext i1 @errstart(i32 noundef 21, ptr noundef null)
  br i1 %33, label %34, label %36

34:                                               ; preds = %32, %30
  %35 = call i32 (ptr, ...) @errmsg_internal(ptr noundef @.str.9)
  call void @errfinish(ptr noundef @.str.1, i32 noundef 719, ptr noundef @__func__.mock_scram_secret)
  br label %36

36:                                               ; preds = %34, %32, %30
  unreachable

37:                                               ; No predecessors!
  br label %38

38:                                               ; preds = %37
  br label %39

39:                                               ; preds = %38, %7
  %40 = call i32 @pg_b64_enc_len(i32 noundef 16)
  store i32 %40, ptr %17, align 4
  %41 = load i32, ptr %17, align 4
  %42 = add i32 %41, 1
  %43 = sext i32 %42 to i64
  %44 = call ptr @palloc(i64 noundef %43)
  store ptr %44, ptr %16, align 8
  %45 = load ptr, ptr %15, align 8
  %46 = load ptr, ptr %16, align 8
  %47 = load i32, ptr %17, align 4
  %48 = call i32 @pg_b64_encode(ptr noundef %45, i32 noundef 16, ptr noundef %46, i32 noundef %47)
  store i32 %48, ptr %17, align 4
  %49 = load i32, ptr %17, align 4
  %50 = icmp slt i32 %49, 0
  br i1 %50, label %51, label %62

51:                                               ; preds = %39
  br label %52

52:                                               ; preds = %51
  br i1 true, label %53, label %55

53:                                               ; preds = %52
  %54 = call zeroext i1 @errstart_cold(i32 noundef 21, ptr noundef null) #11
  br i1 %54, label %57, label %59

55:                                               ; preds = %52
  %56 = call zeroext i1 @errstart(i32 noundef 21, ptr noundef null)
  br i1 %56, label %57, label %59

57:                                               ; preds = %55, %53
  %58 = call i32 (ptr, ...) @errmsg_internal(ptr noundef @.str.9)
  call void @errfinish(ptr noundef @.str.1, i32 noundef 728, ptr noundef @__func__.mock_scram_secret)
  br label %59

59:                                               ; preds = %57, %55, %53
  unreachable

60:                                               ; No predecessors!
  br label %61

61:                                               ; preds = %60
  br label %62

62:                                               ; preds = %61, %39
  %63 = load ptr, ptr %16, align 8
  %64 = load i32, ptr %17, align 4
  %65 = sext i32 %64 to i64
  %66 = getelementptr inbounds i8, ptr %63, i64 %65
  store i8 0, ptr %66, align 1
  %67 = load ptr, ptr %16, align 8
  %68 = load ptr, ptr %12, align 8
  store ptr %67, ptr %68, align 8
  %69 = load ptr, ptr %10, align 8
  store i32 4096, ptr %69, align 4
  %70 = load ptr, ptr %13, align 8
  call void @llvm.memset.p0.i64(ptr align 1 %70, i8 0, i64 32, i1 false)
  %71 = load ptr, ptr %14, align 8
  call void @llvm.memset.p0.i64(ptr align 1 %71, i8 0, i64 32, i1 false)
  call void @llvm.lifetime.end.p0(i64 4, ptr %17) #9
  call void @llvm.lifetime.end.p0(i64 8, ptr %16) #9
  call void @llvm.lifetime.end.p0(i64 8, ptr %15) #9
  ret void
}

; Function Attrs: nounwind uwtable
define internal ptr @scram_init(ptr noundef %0, ptr noundef %1, ptr noundef %2) #0 {
  %4 = alloca ptr, align 8
  %5 = alloca ptr, align 8
  %6 = alloca ptr, align 8
  %7 = alloca ptr, align 8
  %8 = alloca i8, align 1
  %9 = alloca i32, align 4
  store ptr %0, ptr %4, align 8
  store ptr %1, ptr %5, align 8
  store ptr %2, ptr %6, align 8
  call void @llvm.lifetime.start.p0(i64 8, ptr %7) #9
  call void @llvm.lifetime.start.p0(i64 1, ptr %8) #9
  %10 = call ptr @palloc0(i64 noundef 256)
  store ptr %10, ptr %7, align 8
  %11 = load ptr, ptr %4, align 8
  %12 = load ptr, ptr %7, align 8
  %13 = getelementptr inbounds nuw %struct.scram_state, ptr %12, i32 0, i32 2
  store ptr %11, ptr %13, align 8
  %14 = load ptr, ptr %7, align 8
  %15 = getelementptr inbounds nuw %struct.scram_state, ptr %14, i32 0, i32 0
  store i32 0, ptr %15, align 8
  %16 = load ptr, ptr %5, align 8
  %17 = call i32 @strcmp(ptr noundef %16, ptr noundef @.str.6) #10
  %18 = icmp eq i32 %17, 0
  br i1 %18, label %19, label %22

19:                                               ; preds = %3
  %20 = load ptr, ptr %7, align 8
  %21 = getelementptr inbounds nuw %struct.scram_state, ptr %20, i32 0, i32 3
  store i8 0, ptr %21, align 8
  br label %34

22:                                               ; preds = %3
  br label %23

23:                                               ; preds = %22
  br i1 true, label %24, label %26

24:                                               ; preds = %23
  %25 = call zeroext i1 @errstart_cold(i32 noundef 21, ptr noundef null) #11
  br i1 %25, label %28, label %31

26:                                               ; preds = %23
  %27 = call zeroext i1 @errstart(i32 noundef 21, ptr noundef null)
  br i1 %27, label %28, label %31

28:                                               ; preds = %26, %24
  %29 = call i32 @errcode(i32 noundef 16908800)
  %30 = call i32 (ptr, ...) @errmsg(ptr noundef @.str.7)
  call void @errfinish(ptr noundef @.str.1, i32 noundef 267, ptr noundef @__func__.scram_init)
  br label %31

31:                                               ; preds = %28, %26, %24
  unreachable

32:                                               ; No predecessors!
  br label %33

33:                                               ; preds = %32
  br label %34

34:                                               ; preds = %33, %19
  %35 = load ptr, ptr %6, align 8
  %36 = icmp ne ptr %35, null
  br i1 %36, label %37, label %87

37:                                               ; preds = %34
  call void @llvm.lifetime.start.p0(i64 4, ptr %9) #9
  %38 = load ptr, ptr %6, align 8
  %39 = call i32 @get_password_type(ptr noundef %38)
  store i32 %39, ptr %9, align 4
  %40 = load i32, ptr %9, align 4
  %41 = icmp eq i32 %40, 2
  br i1 %41, label %42, label %77

42:                                               ; preds = %37
  %43 = load ptr, ptr %6, align 8
  %44 = load ptr, ptr %7, align 8
  %45 = getelementptr inbounds nuw %struct.scram_state, ptr %44, i32 0, i32 6
  %46 = load ptr, ptr %7, align 8
  %47 = getelementptr inbounds nuw %struct.scram_state, ptr %46, i32 0, i32 4
  %48 = load ptr, ptr %7, align 8
  %49 = getelementptr inbounds nuw %struct.scram_state, ptr %48, i32 0, i32 5
  %50 = load ptr, ptr %7, align 8
  %51 = getelementptr inbounds nuw %struct.scram_state, ptr %50, i32 0, i32 7
  %52 = load ptr, ptr %7, align 8
  %53 = getelementptr inbounds nuw %struct.scram_state, ptr %52, i32 0, i32 9
  %54 = getelementptr inbounds [32 x i8], ptr %53, i64 0, i64 0
  %55 = load ptr, ptr %7, align 8
  %56 = getelementptr inbounds nuw %struct.scram_state, ptr %55, i32 0, i32 10
  %57 = getelementptr inbounds [32 x i8], ptr %56, i64 0, i64 0
  %58 = call zeroext i1 @parse_scram_secret(ptr noundef %43, ptr noundef %45, ptr noundef %47, ptr noundef %49, ptr noundef %51, ptr noundef %54, ptr noundef %57)
  br i1 %58, label %59, label %60

59:                                               ; preds = %42
  store i8 1, ptr %8, align 1
  br label %76

60:                                               ; preds = %42
  br label %61

61:                                               ; preds = %60
  br i1 false, label %62, label %64

62:                                               ; preds = %61
  %63 = call zeroext i1 @errstart_cold(i32 noundef 15, ptr noundef null) #11
  br i1 %63, label %66, label %73

64:                                               ; preds = %61
  %65 = call zeroext i1 @errstart(i32 noundef 15, ptr noundef null)
  br i1 %65, label %66, label %73

66:                                               ; preds = %64, %62
  %67 = load ptr, ptr %7, align 8
  %68 = getelementptr inbounds nuw %struct.scram_state, ptr %67, i32 0, i32 2
  %69 = load ptr, ptr %68, align 8
  %70 = getelementptr inbounds nuw %struct.Port, ptr %69, i32 0, i32 11
  %71 = load ptr, ptr %70, align 8
  %72 = call i32 (ptr, ...) @errmsg(ptr noundef @.str.2, ptr noundef %71)
  call void @errfinish(ptr noundef @.str.1, i32 noundef 292, ptr noundef @__func__.scram_init)
  br label %73

73:                                               ; preds = %66, %64, %62
  br label %74

74:                                               ; preds = %73
  br label %75

75:                                               ; preds = %74
  store i8 0, ptr %8, align 1
  br label %76

76:                                               ; preds = %75, %59
  br label %86

77:                                               ; preds = %37
  %78 = load ptr, ptr %7, align 8
  %79 = getelementptr inbounds nuw %struct.scram_state, ptr %78, i32 0, i32 2
  %80 = load ptr, ptr %79, align 8
  %81 = getelementptr inbounds nuw %struct.Port, ptr %80, i32 0, i32 11
  %82 = load ptr, ptr %81, align 8
  %83 = call ptr (ptr, ...) @psprintf(ptr noundef @.str.8, ptr noundef %82)
  %84 = load ptr, ptr %7, align 8
  %85 = getelementptr inbounds nuw %struct.scram_state, ptr %84, i32 0, i32 21
  store ptr %83, ptr %85, align 8
  store i8 0, ptr %8, align 1
  br label %86

86:                                               ; preds = %77, %76
  call void @llvm.lifetime.end.p0(i64 4, ptr %9) #9
  br label %88

87:                                               ; preds = %34
  store i8 0, ptr %8, align 1
  br label %88

88:                                               ; preds = %87, %86
  %89 = load i8, ptr %8, align 1, !range !4, !noundef !5
  %90 = trunc i8 %89 to i1
  br i1 %90, label %113, label %91

91:                                               ; preds = %88
  %92 = load ptr, ptr %7, align 8
  %93 = getelementptr inbounds nuw %struct.scram_state, ptr %92, i32 0, i32 2
  %94 = load ptr, ptr %93, align 8
  %95 = getelementptr inbounds nuw %struct.Port, ptr %94, i32 0, i32 11
  %96 = load ptr, ptr %95, align 8
  %97 = load ptr, ptr %7, align 8
  %98 = getelementptr inbounds nuw %struct.scram_state, ptr %97, i32 0, i32 4
  %99 = load ptr, ptr %7, align 8
  %100 = getelementptr inbounds nuw %struct.scram_state, ptr %99, i32 0, i32 6
  %101 = load ptr, ptr %7, align 8
  %102 = getelementptr inbounds nuw %struct.scram_state, ptr %101, i32 0, i32 5
  %103 = load ptr, ptr %7, align 8
  %104 = getelementptr inbounds nuw %struct.scram_state, ptr %103, i32 0, i32 7
  %105 = load ptr, ptr %7, align 8
  %106 = getelementptr inbounds nuw %struct.scram_state, ptr %105, i32 0, i32 9
  %107 = getelementptr inbounds [32 x i8], ptr %106, i64 0, i64 0
  %108 = load ptr, ptr %7, align 8
  %109 = getelementptr inbounds nuw %struct.scram_state, ptr %108, i32 0, i32 10
  %110 = getelementptr inbounds [32 x i8], ptr %109, i64 0, i64 0
  call void @mock_scram_secret(ptr noundef %96, ptr noundef %98, ptr noundef %100, ptr noundef %102, ptr noundef %104, ptr noundef %107, ptr noundef %110)
  %111 = load ptr, ptr %7, align 8
  %112 = getelementptr inbounds nuw %struct.scram_state, ptr %111, i32 0, i32 20
  store i8 1, ptr %112, align 8
  br label %113

113:                                              ; preds = %91, %88
  %114 = load ptr, ptr %7, align 8
  call void @llvm.lifetime.end.p0(i64 1, ptr %8) #9
  call void @llvm.lifetime.end.p0(i64 8, ptr %7) #9
  ret ptr %114
}