; Function Attrs: nounwind uwtable
define internal noundef ptr @scram_init(ptr noundef %0, ptr noundef readonly captures(none) %1, ptr noundef %2) #0 {
  %4 = tail call ptr @palloc0(i64 noundef 256) #13
  %5 = getelementptr inbounds nuw i8, ptr %4, i64 16
  store ptr %0, ptr %5, align 8
  store i32 0, ptr %4, align 8
  %6 = tail call i32 @strcmp(ptr noundef nonnull dereferenceable(1) %1, ptr noundef nonnull dereferenceable(14) @.str.6) #14
  %7 = icmp eq i32 %6, 0
  br i1 %7, label %8, label %10

8:                                                ; preds = %3
  %9 = getelementptr inbounds nuw i8, ptr %4, i64 24
  store i8 0, ptr %9, align 8
  %.not = icmp eq ptr %2, null
  br i1 %.not, label %.critedge, label %14

10:                                               ; preds = %3
  %11 = tail call zeroext i1 @errstart_cold(i32 noundef 21, ptr noundef null) #15
  tail call void @llvm.assume(i1 %11)
  %12 = tail call i32 @errcode(i32 noundef 16908800) #13
  %13 = tail call i32 (ptr, ...) @errmsg(ptr noundef nonnull @.str.7) #13
  tail call void @errfinish(ptr noundef nonnull @.str.1, i32 noundef 267, ptr noundef nonnull @__func__.scram_init) #13
  unreachable

14:                                               ; preds = %8
  %15 = tail call i32 @get_password_type(ptr noundef nonnull %2) #13
  %16 = icmp eq i32 %15, 2
  br i1 %16, label %17, label %32

17:                                               ; preds = %14
  %18 = getelementptr inbounds nuw i8, ptr %4, i64 36
  %19 = getelementptr inbounds nuw i8, ptr %4, i64 28
  %20 = getelementptr inbounds nuw i8, ptr %4, i64 32
  %21 = getelementptr inbounds nuw i8, ptr %4, i64 40
  %22 = getelementptr inbounds nuw i8, ptr %4, i64 80
  %23 = getelementptr inbounds nuw i8, ptr %4, i64 112
  %24 = tail call zeroext i1 @parse_scram_secret(ptr noundef nonnull %2, ptr noundef nonnull %18, ptr noundef nonnull %19, ptr noundef nonnull %20, ptr noundef nonnull %21, ptr noundef nonnull %22, ptr noundef nonnull %23)
  br i1 %24, label %75, label %25

25:                                               ; preds = %17
  %26 = tail call zeroext i1 @errstart(i32 noundef 15, ptr noundef null) #13
  br i1 %26, label %27, label %.critedge

27:                                               ; preds = %25
  %28 = load ptr, ptr %5, align 8
  %29 = getelementptr inbounds nuw i8, ptr %28, i64 328
  %30 = load ptr, ptr %29, align 8
  %31 = tail call i32 (ptr, ...) @errmsg(ptr noundef nonnull @.str.2, ptr noundef %30) #13
  tail call void @errfinish(ptr noundef nonnull @.str.1, i32 noundef 292, ptr noundef nonnull @__func__.scram_init) #13
  br label %.critedge

32:                                               ; preds = %14
  %33 = load ptr, ptr %5, align 8
  %34 = getelementptr inbounds nuw i8, ptr %33, i64 328
  %35 = load ptr, ptr %34, align 8
  %36 = tail call ptr (ptr, ...) @psprintf(ptr noundef nonnull @.str.8, ptr noundef %35) #13
  %37 = getelementptr inbounds nuw i8, ptr %4, i64 248
  store ptr %36, ptr %37, align 8
  br label %.critedge

.critedge:                                        ; preds = %8, %25, %27, %32
  %38 = load ptr, ptr %5, align 8
  %39 = getelementptr inbounds nuw i8, ptr %38, i64 328
  %40 = load ptr, ptr %39, align 8
  %41 = getelementptr inbounds nuw i8, ptr %4, i64 28
  %42 = getelementptr inbounds nuw i8, ptr %4, i64 36
  %43 = getelementptr inbounds nuw i8, ptr %4, i64 32
  %44 = getelementptr inbounds nuw i8, ptr %4, i64 40
  %45 = getelementptr inbounds nuw i8, ptr %4, i64 80
  store i32 3, ptr %41, align 4
  store i32 32, ptr %43, align 4
  %46 = tail call ptr @GetMockAuthenticationNonce() #13
  %47 = tail call ptr @pg_cryptohash_create(i32 noundef 3) #13
  %48 = tail call i32 @pg_cryptohash_init(ptr noundef %47) #13
  %49 = icmp slt i32 %48, 0
  br i1 %49, label %select.unfold.i, label %50

50:                                               ; preds = %.critedge
  %51 = tail call i64 @strlen(ptr noundef nonnull dereferenceable(1) %40) #14
  %52 = tail call i32 @pg_cryptohash_update(ptr noundef %47, ptr noundef nonnull %40, i64 noundef %51) #13
  %53 = icmp slt i32 %52, 0
  br i1 %53, label %select.unfold.i, label %54

54:                                               ; preds = %50
  %55 = tail call i32 @pg_cryptohash_update(ptr noundef %47, ptr noundef %46, i64 noundef 32) #13
  %56 = icmp slt i32 %55, 0
  br i1 %56, label %select.unfold.i, label %57

57:                                               ; preds = %54
  %58 = tail call i32 @pg_cryptohash_final(ptr noundef %47, ptr noundef nonnull @scram_mock_salt.sha_digest, i64 noundef 32) #13
  %59 = icmp slt i32 %58, 0
  br i1 %59, label %select.unfold.i, label %62

select.unfold.i:                                  ; preds = %57, %54, %50, %.critedge
  tail call void @pg_cryptohash_free(ptr noundef %47) #13
  %60 = tail call zeroext i1 @errstart_cold(i32 noundef 21, ptr noundef null) #15
  tail call void @llvm.assume(i1 %60)
  %61 = tail call i32 (ptr, ...) @errmsg_internal(ptr noundef nonnull @.str.9) #13
  tail call void @errfinish(ptr noundef nonnull @.str.1, i32 noundef 719, ptr noundef nonnull @__func__.mock_scram_secret) #13
  unreachable

62:                                               ; preds = %57
  tail call void @pg_cryptohash_free(ptr noundef %47) #13
  %63 = tail call i32 @pg_b64_enc_len(i32 noundef 16) #13
  %64 = add i32 %63, 1
  %65 = sext i32 %64 to i64
  %66 = tail call ptr @palloc(i64 noundef %65) #13
  %67 = tail call i32 @pg_b64_encode(ptr noundef nonnull @scram_mock_salt.sha_digest, i32 noundef 16, ptr noundef %66, i32 noundef %63) #13
  %68 = icmp slt i32 %67, 0
  br i1 %68, label %69, label %mock_scram_secret.exit

69:                                               ; preds = %62
  %70 = tail call zeroext i1 @errstart_cold(i32 noundef 21, ptr noundef null) #15
  tail call void @llvm.assume(i1 %70)
  %71 = tail call i32 (ptr, ...) @errmsg_internal(ptr noundef nonnull @.str.9) #13
  tail call void @errfinish(ptr noundef nonnull @.str.1, i32 noundef 728, ptr noundef nonnull @__func__.mock_scram_secret) #13
  unreachable

mock_scram_secret.exit:                           ; preds = %62
  %72 = zext nneg i32 %67 to i64
  %73 = getelementptr inbounds nuw i8, ptr %66, i64 %72
  store i8 0, ptr %73, align 1
  store ptr %66, ptr %44, align 8
  store i32 4096, ptr %42, align 4
  %74 = getelementptr inbounds nuw i8, ptr %4, i64 240
  tail call void @llvm.memset.p0.i64(ptr noundef nonnull align 1 dereferenceable(64) %45, i8 0, i64 64, i1 false)
  store i8 1, ptr %74, align 8
  br label %75

75:                                               ; preds = %17, %mock_scram_secret.exit
  ret ptr %4
}